target datalayout = "e-m:e-p270:32:32-p271:32:32-p272:64:64-i64:64-i128:128-f80:128-n8:16:32:64-S128"
target triple = "x86_64-pc-linux-gnu"

%struct.tsi_ssl_pem_key_cert_pair = type { ptr, ptr }

; Function Attrs: mustprogress uwtable
define void @_Z39grpc_tsi_ssl_pem_key_cert_pairs_destroyP25tsi_ssl_pem_key_cert_pairm(ptr noundef %0, i64 noundef %1) #5 {
  %3 = alloca ptr, align 8
  %4 = alloca i64, align 8
  %5 = alloca i64, align 8
  store ptr %0, ptr %3, align 8, !tbaa !47
  store i64 %1, ptr %4, align 8, !tbaa !42
  %6 = load ptr, ptr %3, align 8, !tbaa !47
  %7 = icmp eq ptr %6, null
  br i1 %7, label %8, label %9

8:                                                ; preds = %2
  br label %31

9:                                                ; preds = %2
  call void @llvm.lifetime.start.p0(i64 8, ptr %5) #3
  store i64 0, ptr %5, align 8, !tbaa !42
  br label %10

10:                                               ; preds = %26, %9
  %11 = load i64, ptr %5, align 8, !tbaa !42
  %12 = load i64, ptr %4, align 8, !tbaa !42
  %13 = icmp ult i64 %11, %12
  br i1 %13, label %15, label %14

14:                                               ; preds = %10
  call void @llvm.lifetime.end.p0(i64 8, ptr %5) #3
  br label %29

15:                                               ; preds = %10
  %16 = load ptr, ptr %3, align 8, !tbaa !47
  %17 = load i64, ptr %5, align 8, !tbaa !42
  %18 = getelementptr inbounds nuw %struct.tsi_ssl_pem_key_cert_pair, ptr %16, i64 %17
  %19 = getelementptr inbounds nuw %struct.tsi_ssl_pem_key_cert_pair, ptr %18, i32 0, i32 0
  %20 = load ptr, ptr %19, align 8, !tbaa !49
  call void @gpr_free(ptr noundef %20)
  %21 = load ptr, ptr %3, align 8, !tbaa !47
  %22 = load i64, ptr %5, align 8, !tbaa !42
  %23 = getelementptr inbounds nuw %struct.tsi_ssl_pem_key_cert_pair, ptr %21, i64 %22
  %24 = getelementptr inbounds nuw %struct.tsi_ssl_pem_key_cert_pair, ptr %23, i32 0, i32 1
  %25 = load ptr, ptr %24, align 8, !tbaa !51
  call void @gpr_free(ptr noundef %25)
  br label %26

26:                                               ; preds = %15
  %27 = load i64, ptr %5, align 8, !tbaa !42
  %28 = add i64 %27, 1
  store i64 %28, ptr %5, align 8, !tbaa !42
  br label %10, !llvm.loop !52

29:                                               ; preds = %14
  %30 = load ptr, ptr %3, align 8, !tbaa !47
  call void @gpr_free(ptr noundef %30)
  br label %31

31:                                               ; preds = %29, %8
  ret void
}