; Function Attrs: mustprogress uwtable
define void @_Z39grpc_tsi_ssl_pem_key_cert_pairs_destroyP25tsi_ssl_pem_key_cert_pairm(ptr noundef %0, i64 noundef %1) local_unnamed_addr #4 {
  %3 = icmp eq ptr %0, null
  br i1 %3, label %9, label %.preheader

.preheader:                                       ; preds = %2
  %.not = icmp eq i64 %1, 0
  br i1 %.not, label %._crit_edge, label %.lr.ph

._crit_edge:                                      ; preds = %.lr.ph, %.preheader
  tail call void @gpr_free(ptr noundef nonnull %0)
  br label %9

.lr.ph:                                           ; preds = %.preheader, %.lr.ph
  %.09 = phi i64 [ %8, %.lr.ph ], [ 0, %.preheader ]
  %4 = getelementptr inbounds nuw %struct.tsi_ssl_pem_key_cert_pair, ptr %0, i64 %.09
  %5 = load ptr, ptr %4, align 8, !tbaa !39
  tail call void @gpr_free(ptr noundef %5)
  %6 = getelementptr inbounds nuw i8, ptr %4, i64 8
  %7 = load ptr, ptr %6, align 8, !tbaa !41
  tail call void @gpr_free(ptr noundef %7)
  %8 = add nuw i64 %.09, 1
  %exitcond.not = icmp eq i64 %8, %1
  br i1 %exitcond.not, label %._crit_edge, label %.lr.ph, !llvm.loop !42

9:                                                ; preds = %2, %._crit_edge
  ret void
}